target datalayout = "e-m:e-p270:32:32-p271:32:32-p272:64:64-i64:64-i128:128-f80:128-n8:16:32:64-S128"
target triple = "x86_64-unknown-linux-gnu"

%"class.std::basic_string_view" = type { i64, ptr }
%"struct.std::atomic.4" = type { %"struct.std::__atomic_base.5" }
%"struct.std::__atomic_base.5" = type { i64 }
%"class.grpc_core::Orphanable" = type { ptr }
%"class.grpc_core::Party" = type { %"class.grpc_core::Activity", %"class.grpc_core::Wakeable", %"class.grpc_core::PartySyncUsingAtomics", ptr, i8, [16 x %"struct.std::atomic.270"] }
%"class.grpc_core::Activity" = type { %"class.grpc_core::Orphanable" }
%"class.grpc_core::Wakeable" = type { ptr }
%"class.grpc_core::PartySyncUsingAtomics" = type { %"struct.std::atomic.4" }
%"struct.std::atomic.270" = type { %"struct.std::__atomic_base.271" }
%"struct.std::__atomic_base.271" = type { ptr }
%"class.grpc_core::PromiseBasedCall::Completion" = type { i8 }
%"class.grpc_core::Party::BulkSpawner" = type { ptr, i64, [16 x ptr] }
%class.anon.313 = type { ptr }
%class.anon.314 = type <{ ptr, ptr, %"class.grpc_core::PromiseBasedCall::Completion", [7 x i8] }>
%"class.grpc_core::Party::Participant" = type { ptr, ptr, %"class.std::basic_string_view" }
%"class.grpc_core::Party::ParticipantImpl.571" = type <{ %"class.grpc_core::Party::Participant", %union.anon.572, %class.anon.base.315, i8, [6 x i8] }>
%union.anon.572 = type { %"class.grpc_core::promise_detail::OncePromiseFactory.573", [64 x i8] }
%"class.grpc_core::promise_detail::OncePromiseFactory.573" = type { %class.anon.313 }
%class.anon.base.315 = type <{ ptr, ptr, %"class.grpc_core::PromiseBasedCall::Completion" }>

@.str.61 = private unnamed_addr constant [22 x i8] c"recv_initial_metadata\00", align 1
@_ZTVN9grpc_core5Party11ParticipantE = linkonce_odr unnamed_addr constant { [4 x ptr] } { [4 x ptr] [ptr null, ptr @_ZTIN9grpc_core5Party11ParticipantE, ptr @__cxa_pure_virtual, ptr @__cxa_pure_virtual] }, comdat, align 8

; Function Attrs: mustprogress nounwind uwtable
define internal void @"_ZN9grpc_core14promise_detail18OncePromiseFactoryIvZNS_22ClientPromiseBasedCall24StartRecvInitialMetadataEP19grpc_metadata_arrayRKNS_16PromiseBasedCall10CompletionERNS_5Party11BulkSpawnerEE3$_0EC2ESC_"(ptr noundef nonnull align 8 dereferenceable(8) %this, ptr %f.coerce) unnamed_addr #5 align 2 {
entry:
  %f = alloca %class.anon.313, align 8
  %this.addr = alloca ptr, align 8
  %coerce.dive = getelementptr inbounds %class.anon.313, ptr %f, i32 0, i32 0
  store ptr %f.coerce, ptr %coerce.dive, align 8
  store ptr %this, ptr %this.addr, align 8
  %this1 = load ptr, ptr %this.addr, align 8
  %f_ = getelementptr inbounds %"class.grpc_core::promise_detail::OncePromiseFactory.573", ptr %this1, i32 0, i32 0
  call void @llvm.memcpy.p0.p0.i64(ptr align 8 %f_, ptr align 8 %f, i64 8, i1 false)
  ret void
}

; Function Attrs: mustprogress uwtable
define internal void @"_ZN9grpc_core9ConstructINS_14promise_detail18OncePromiseFactoryIvZNS_22ClientPromiseBasedCall24StartRecvInitialMetadataEP19grpc_metadata_arrayRKNS_16PromiseBasedCall10CompletionERNS_5Party11BulkSpawnerEE3$_0EEJSD_EEEvPT_DpOT0_"(ptr noundef %p, ptr noundef nonnull align 8 dereferenceable(8) %args) #4 {
entry:
  %p.addr = alloca ptr, align 8
  %args.addr = alloca ptr, align 8
  %agg.tmp = alloca %class.anon.313, align 8
  store ptr %p, ptr %p.addr, align 8
  store ptr %args, ptr %args.addr, align 8
  %0 = load ptr, ptr %p.addr, align 8
  %1 = load ptr, ptr %args.addr, align 8
  call void @llvm.memcpy.p0.p0.i64(ptr align 8 %agg.tmp, ptr align 8 %1, i64 8, i1 false)
  %coerce.dive = getelementptr inbounds %class.anon.313, ptr %agg.tmp, i32 0, i32 0
  %2 = load ptr, ptr %coerce.dive, align 8
  call void @"_ZN9grpc_core14promise_detail18OncePromiseFactoryIvZNS_22ClientPromiseBasedCall24StartRecvInitialMetadataEP19grpc_metadata_arrayRKNS_16PromiseBasedCall10CompletionERNS_5Party11BulkSpawnerEE3$_0EC2ESC_"(ptr noundef nonnull align 8 dereferenceable(8) %0, ptr %2)
  ret void
}

; Function Attrs: mustprogress nounwind uwtable
define linkonce_odr void @_ZN9grpc_core5Party11ParticipantC2ESt17basic_string_viewIcSt11char_traitsIcEE(ptr noundef nonnull align 8 dereferenceable(32) %this, i64 %name.coerce0, ptr %name.coerce1) unnamed_addr #5 comdat align 2 {
entry:
  %name = alloca %"class.std::basic_string_view", align 8
  %this.addr = alloca ptr, align 8
  %0 = getelementptr inbounds { i64, ptr }, ptr %name, i32 0, i32 0
  store i64 %name.coerce0, ptr %0, align 8
  %1 = getelementptr inbounds { i64, ptr }, ptr %name, i32 0, i32 1
  store ptr %name.coerce1, ptr %1, align 8
  store ptr %this, ptr %this.addr, align 8
  %this1 = load ptr, ptr %this.addr, align 8
  store ptr getelementptr inbounds ({ [4 x ptr] }, ptr @_ZTVN9grpc_core5Party11ParticipantE, i32 0, i32 0, i32 2), ptr %this1, align 8
  %handle_ = getelementptr inbounds %"class.grpc_core::Party::Participant", ptr %this1, i32 0, i32 1
  store ptr null, ptr %handle_, align 8
  %name_ = getelementptr inbounds %"class.grpc_core::Party::Participant", ptr %this1, i32 0, i32 2
  call void @llvm.memcpy.p0.p0.i64(ptr align 8 %name_, ptr align 8 %name, i64 16, i1 false)
  ret void
}

; Function Attrs: mustprogress nounwind uwtable
define linkonce_odr void @_ZN9grpc_core16PromiseBasedCall10CompletionC2EOS1_(ptr noundef nonnull align 1 dereferenceable(1) %this, ptr noundef nonnull align 1 dereferenceable(1) %other) unnamed_addr #5 comdat align 2 {
entry:
  %this.addr = alloca ptr, align 8
  %other.addr = alloca ptr, align 8
  store ptr %this, ptr %this.addr, align 8
  store ptr %other, ptr %other.addr, align 8
  %this1 = load ptr, ptr %this.addr, align 8
  %index_ = getelementptr inbounds %"class.grpc_core::PromiseBasedCall::Completion", ptr %this1, i32 0, i32 0
  %0 = load ptr, ptr %other.addr, align 8
  %index_2 = getelementptr inbounds %"class.grpc_core::PromiseBasedCall::Completion", ptr %0, i32 0, i32 0
  %1 = load i8, ptr %index_2, align 1
  store i8 %1, ptr %index_, align 1
  %2 = load ptr, ptr %other.addr, align 8
  %index_3 = getelementptr inbounds %"class.grpc_core::PromiseBasedCall::Completion", ptr %2, i32 0, i32 0
  store i8 -1, ptr %index_3, align 1
  ret void
}

; Function Attrs: mustprogress uwtable
define internal void @"_ZN9grpc_core5Party15ParticipantImplIZNS_22ClientPromiseBasedCall24StartRecvInitialMetadataEP19grpc_metadata_arrayRKNS_16PromiseBasedCall10CompletionERNS0_11BulkSpawnerEE3$_0ZNS2_24StartRecvInitialMetadataES4_S8_SA_E3$_1EC2ESt17basic_string_viewIcSt11char_traitsIcEESB_SC_"(ptr noundef nonnull align 8 dereferenceable(128) %this, i64 %name.coerce0, ptr %name.coerce1, ptr %promise_factory.coerce, ptr noundef %on_complete) unnamed_addr #4 align 2 personality ptr @__gxx_personality_v0 {
entry:
  %name = alloca %"class.std::basic_string_view", align 8
  %promise_factory = alloca %class.anon.313, align 8
  %this.addr = alloca ptr, align 8
  %on_complete.indirect_addr = alloca ptr, align 8
  %agg.tmp = alloca %"class.std::basic_string_view", align 8
  %exn.slot = alloca ptr, align 8
  %ehselector.slot = alloca i32, align 4
  %0 = getelementptr inbounds { i64, ptr }, ptr %name, i32 0, i32 0
  store i64 %name.coerce0, ptr %0, align 8
  %1 = getelementptr inbounds { i64, ptr }, ptr %name, i32 0, i32 1
  store ptr %name.coerce1, ptr %1, align 8
  %coerce.dive = getelementptr inbounds %class.anon.313, ptr %promise_factory, i32 0, i32 0
  store ptr %promise_factory.coerce, ptr %coerce.dive, align 8
  store ptr %this, ptr %this.addr, align 8
  store ptr %on_complete, ptr %on_complete.indirect_addr, align 8
  %this1 = load ptr, ptr %this.addr, align 8
  call void @llvm.memcpy.p0.p0.i64(ptr align 8 %agg.tmp, ptr align 8 %name, i64 16, i1 false)
  %2 = getelementptr inbounds { i64, ptr }, ptr %agg.tmp, i32 0, i32 0
  %3 = load i64, ptr %2, align 8
  %4 = getelementptr inbounds { i64, ptr }, ptr %agg.tmp, i32 0, i32 1
  %5 = load ptr, ptr %4, align 8
  call void @_ZN9grpc_core5Party11ParticipantC2ESt17basic_string_viewIcSt11char_traitsIcEE(ptr noundef nonnull align 8 dereferenceable(32) %this1, i64 %3, ptr %5)
  store ptr getelementptr inbounds ({ [4 x ptr] }, ptr @"_ZTVN9grpc_core5Party15ParticipantImplIZNS_22ClientPromiseBasedCall24StartRecvInitialMetadataEP19grpc_metadata_arrayRKNS_16PromiseBasedCall10CompletionERNS0_11BulkSpawnerEE3$_0ZNS2_24StartRecvInitialMetadataES4_S8_SA_E3$_1EE", i32 0, i32 0, i32 2), ptr %this1, align 8
  %on_complete_ = getelementptr inbounds %"class.grpc_core::Party::ParticipantImpl.571", ptr %this1, i32 0, i32 2
  call void @"_ZZN9grpc_core22ClientPromiseBasedCall24StartRecvInitialMetadataEP19grpc_metadata_arrayRKNS_16PromiseBasedCall10CompletionERNS_5Party11BulkSpawnerEEN3$_1C2EOSA_"(ptr noundef nonnull align 8 dereferenceable(17) %on_complete_, ptr noundef nonnull align 8 dereferenceable(17) %on_complete) #3
  %started_ = getelementptr inbounds %"class.grpc_core::Party::ParticipantImpl.571", ptr %this1, i32 0, i32 3
  store i8 0, ptr %started_, align 1
  %6 = getelementptr inbounds %"class.grpc_core::Party::ParticipantImpl.571", ptr %this1, i32 0, i32 1
  invoke void @"_ZN9grpc_core9ConstructINS_14promise_detail18OncePromiseFactoryIvZNS_22ClientPromiseBasedCall24StartRecvInitialMetadataEP19grpc_metadata_arrayRKNS_16PromiseBasedCall10CompletionERNS_5Party11BulkSpawnerEE3$_0EEJSD_EEEvPT_DpOT0_"(ptr noundef %6, ptr noundef nonnull align 8 dereferenceable(8) %promise_factory)
          to label %invoke.cont unwind label %lpad

invoke.cont:                                      ; preds = %entry
  ret void

lpad:                                             ; preds = %entry
  %7 = landingpad { ptr, i32 }
          cleanup
  %8 = extractvalue { ptr, i32 } %7, 0
  store ptr %8, ptr %exn.slot, align 8
  %9 = extractvalue { ptr, i32 } %7, 1
  store i32 %9, ptr %ehselector.slot, align 4
  call void @"_ZZN9grpc_core22ClientPromiseBasedCall24StartRecvInitialMetadataEP19grpc_metadata_arrayRKNS_16PromiseBasedCall10CompletionERNS_5Party11BulkSpawnerEEN3$_1D2Ev"(ptr noundef nonnull align 8 dereferenceable(17) %on_complete_) #3
  call void @_ZN9grpc_core5Party11ParticipantD2Ev(ptr noundef nonnull align 8 dereferenceable(32) %this1) #3
  br label %eh.resume

eh.resume:                                        ; preds = %lpad
  %exn = load ptr, ptr %exn.slot, align 8
  %sel = load i32, ptr %ehselector.slot, align 4
  %lpad.val = insertvalue { ptr, i32 } poison, ptr %exn, 0
  %lpad.val2 = insertvalue { ptr, i32 } %lpad.val, i32 %sel, 1
  resume { ptr, i32 } %lpad.val2
}

; Function Attrs: mustprogress nounwind uwtable
define internal void @"_ZZN9grpc_core22ClientPromiseBasedCall24StartRecvInitialMetadataEP19grpc_metadata_arrayRKNS_16PromiseBasedCall10CompletionERNS_5Party11BulkSpawnerEEN3$_1C2EOSA_"(ptr noundef nonnull align 8 dereferenceable(17) %this, ptr noundef nonnull align 8 dereferenceable(17) %0) unnamed_addr #5 align 2 {
entry:
  %this.addr = alloca ptr, align 8
  %.addr = alloca ptr, align 8
  store ptr %this, ptr %this.addr, align 8
  store ptr %0, ptr %.addr, align 8
  %this1 = load ptr, ptr %this.addr, align 8
  %1 = getelementptr inbounds %class.anon.314, ptr %this1, i32 0, i32 0
  %2 = load ptr, ptr %.addr, align 8
  %3 = getelementptr inbounds %class.anon.314, ptr %2, i32 0, i32 0
  call void @llvm.memcpy.p0.p0.i64(ptr align 8 %1, ptr align 8 %3, i64 16, i1 false)
  %4 = getelementptr inbounds %class.anon.314, ptr %this1, i32 0, i32 2
  %5 = load ptr, ptr %.addr, align 8
  %6 = getelementptr inbounds %class.anon.314, ptr %5, i32 0, i32 2
  call void @_ZN9grpc_core16PromiseBasedCall10CompletionC2EOS1_(ptr noundef nonnull align 1 dereferenceable(1) %4, ptr noundef nonnull align 1 dereferenceable(1) %6) #3
  ret void
}

; Function Attrs: mustprogress uwtable
define internal noundef ptr @"_ZN9grpc_core5Arena9NewPooledINS_5Party15ParticipantImplIZNS_22ClientPromiseBasedCall24StartRecvInitialMetadataEP19grpc_metadata_arrayRKNS_16PromiseBasedCall10CompletionERNS2_11BulkSpawnerEE3$_0ZNS4_24StartRecvInitialMetadataES6_SA_SC_E3$_1EEJRSt17basic_string_viewIcSt11char_traitsIcEESD_SE_EEEPT_DpOT0_"(ptr noundef nonnull align 8 dereferenceable(48) %this, ptr noundef nonnull align 8 dereferenceable(16) %args, ptr noundef nonnull align 8 dereferenceable(8) %args1, ptr noundef nonnull align 8 dereferenceable(17) %args3) #4 align 2 personality ptr @__gxx_personality_v0 {
entry:
  %this.addr = alloca ptr, align 8
  %args.addr = alloca ptr, align 8
  %args.addr2 = alloca ptr, align 8
  %args.addr4 = alloca ptr, align 8
  %agg.tmp = alloca %"class.std::basic_string_view", align 8
  %agg.tmp6 = alloca %class.anon.313, align 8
  %agg.tmp7 = alloca %class.anon.314, align 8
  %exn.slot = alloca ptr, align 8
  %ehselector.slot = alloca i32, align 4
  %cleanup.isactive = alloca i1, align 1
  store ptr %this, ptr %this.addr, align 8
  store ptr %args, ptr %args.addr, align 8
  store ptr %args1, ptr %args.addr2, align 8
  store ptr %args3, ptr %args.addr4, align 8
  %call = call noalias noundef nonnull ptr @_Znwm(i64 noundef 128) #19
  store i1 true, ptr %cleanup.isactive, align 1
  %0 = load ptr, ptr %args.addr, align 8
  call void @llvm.memcpy.p0.p0.i64(ptr align 8 %agg.tmp, ptr align 8 %0, i64 16, i1 false)
  %1 = load ptr, ptr %args.addr2, align 8
  call void @llvm.memcpy.p0.p0.i64(ptr align 8 %agg.tmp6, ptr align 8 %1, i64 8, i1 false)
  %2 = load ptr, ptr %args.addr4, align 8
  call void @"_ZZN9grpc_core22ClientPromiseBasedCall24StartRecvInitialMetadataEP19grpc_metadata_arrayRKNS_16PromiseBasedCall10CompletionERNS_5Party11BulkSpawnerEEN3$_1C2EOSA_"(ptr noundef nonnull align 8 dereferenceable(17) %agg.tmp7, ptr noundef nonnull align 8 dereferenceable(17) %2) #3
  %3 = getelementptr inbounds { i64, ptr }, ptr %agg.tmp, i32 0, i32 0
  %4 = load i64, ptr %3, align 8
  %5 = getelementptr inbounds { i64, ptr }, ptr %agg.tmp, i32 0, i32 1
  %6 = load ptr, ptr %5, align 8
  %coerce.dive = getelementptr inbounds %class.anon.313, ptr %agg.tmp6, i32 0, i32 0
  %7 = load ptr, ptr %coerce.dive, align 8
  invoke void @"_ZN9grpc_core5Party15ParticipantImplIZNS_22ClientPromiseBasedCall24StartRecvInitialMetadataEP19grpc_metadata_arrayRKNS_16PromiseBasedCall10CompletionERNS0_11BulkSpawnerEE3$_0ZNS2_24StartRecvInitialMetadataES4_S8_SA_E3$_1EC2ESt17basic_string_viewIcSt11char_traitsIcEESB_SC_"(ptr noundef nonnull align 8 dereferenceable(128) %call, i64 %4, ptr %6, ptr %7, ptr noundef %agg.tmp7)
          to label %invoke.cont unwind label %lpad

invoke.cont:                                      ; preds = %entry
  store i1 false, ptr %cleanup.isactive, align 1
  call void @"_ZZN9grpc_core22ClientPromiseBasedCall24StartRecvInitialMetadataEP19grpc_metadata_arrayRKNS_16PromiseBasedCall10CompletionERNS_5Party11BulkSpawnerEEN3$_1D2Ev"(ptr noundef nonnull align 8 dereferenceable(17) %agg.tmp7) #3
  ret ptr %call

lpad:                                             ; preds = %entry
  %8 = landingpad { ptr, i32 }
          cleanup
  %9 = extractvalue { ptr, i32 } %8, 0
  store ptr %9, ptr %exn.slot, align 8
  %10 = extractvalue { ptr, i32 } %8, 1
  store i32 %10, ptr %ehselector.slot, align 4
  call void @"_ZZN9grpc_core22ClientPromiseBasedCall24StartRecvInitialMetadataEP19grpc_metadata_arrayRKNS_16PromiseBasedCall10CompletionERNS_5Party11BulkSpawnerEEN3$_1D2Ev"(ptr noundef nonnull align 8 dereferenceable(17) %agg.tmp7) #3
  %cleanup.is_active = load i1, ptr %cleanup.isactive, align 1
  br i1 %cleanup.is_active, label %cleanup.action, label %cleanup.done

cleanup.action:                                   ; preds = %lpad
  call void @_ZdlPv(ptr noundef %call) #20
  br label %cleanup.done

cleanup.done:                                     ; preds = %cleanup.action, %lpad
  br label %eh.resume

eh.resume:                                        ; preds = %cleanup.done
  %exn = load ptr, ptr %exn.slot, align 8
  %sel = load i32, ptr %ehselector.slot, align 4
  %lpad.val = insertvalue { ptr, i32 } poison, ptr %exn, 0
  %lpad.val8 = insertvalue { ptr, i32 } %lpad.val, i32 %sel, 1
  resume { ptr, i32 } %lpad.val8
}

; Function Attrs: noreturn nounwind uwtable
define linkonce_odr hidden void @__clang_call_terminate(ptr noundef %0) #13 comdat {
  %2 = call ptr @__cxa_begin_catch(ptr %0) #3
  call void @_ZSt9terminatev() #18
  unreachable
}

; Function Attrs: mustprogress nounwind uwtable
define linkonce_odr noundef i64 @_ZNSt11char_traitsIcE6lengthEPKc(ptr noundef %__s) #5 comdat align 2 {
entry:
  %__s.addr = alloca ptr, align 8
  store ptr %__s, ptr %__s.addr, align 8
  %0 = load ptr, ptr %__s.addr, align 8
  %call = call i64 @strlen(ptr noundef %0) #3
  ret i64 %call
}

; Function Attrs: mustprogress uwtable
define internal void @"_ZN9grpc_core5Party11BulkSpawner5SpawnIZNS_22ClientPromiseBasedCall24StartRecvInitialMetadataEP19grpc_metadata_arrayRKNS_16PromiseBasedCall10CompletionERS1_E3$_0ZNS3_24StartRecvInitialMetadataES5_S9_SA_E3$_1EEvSt17basic_string_viewIcSt11char_traitsIcEET_T0_"(ptr noundef nonnull align 8 dereferenceable(144) %this, i64 %name.coerce0, ptr %name.coerce1, ptr %promise_factory.coerce, ptr noundef %on_complete) #4 align 2 {
entry:
  %name = alloca %"class.std::basic_string_view", align 8
  %promise_factory = alloca %class.anon.313, align 8
  %this.addr = alloca ptr, align 8
  %on_complete.indirect_addr = alloca ptr, align 8
  %0 = getelementptr inbounds { i64, ptr }, ptr %name, i32 0, i32 0
  store i64 %name.coerce0, ptr %0, align 8
  %1 = getelementptr inbounds { i64, ptr }, ptr %name, i32 0, i32 1
  store ptr %name.coerce1, ptr %1, align 8
  %coerce.dive = getelementptr inbounds %class.anon.313, ptr %promise_factory, i32 0, i32 0
  store ptr %promise_factory.coerce, ptr %coerce.dive, align 8
  store ptr %this, ptr %this.addr, align 8
  store ptr %on_complete, ptr %on_complete.indirect_addr, align 8
  %this1 = load ptr, ptr %this.addr, align 8
  %party_ = getelementptr inbounds %"class.grpc_core::Party::BulkSpawner", ptr %this1, i32 0, i32 0
  %2 = load ptr, ptr %party_, align 8
  %arena_ = getelementptr inbounds %"class.grpc_core::Party", ptr %2, i32 0, i32 3
  %3 = load ptr, ptr %arena_, align 8
  %call = call noundef ptr @"_ZN9grpc_core5Arena9NewPooledINS_5Party15ParticipantImplIZNS_22ClientPromiseBasedCall24StartRecvInitialMetadataEP19grpc_metadata_arrayRKNS_16PromiseBasedCall10CompletionERNS2_11BulkSpawnerEE3$_0ZNS4_24StartRecvInitialMetadataES6_SA_SC_E3$_1EEJRSt17basic_string_viewIcSt11char_traitsIcEESD_SE_EEEPT_DpOT0_"(ptr noundef nonnull align 8 dereferenceable(48) %3, ptr noundef nonnull align 8 dereferenceable(16) %name, ptr noundef nonnull align 8 dereferenceable(8) %promise_factory, ptr noundef nonnull align 8 dereferenceable(17) %on_complete)
  %participants_ = getelementptr inbounds %"class.grpc_core::Party::BulkSpawner", ptr %this1, i32 0, i32 2
  %num_participants_ = getelementptr inbounds %"class.grpc_core::Party::BulkSpawner", ptr %this1, i32 0, i32 1
  %4 = load i64, ptr %num_participants_, align 8
  %inc = add i64 %4, 1
  store i64 %inc, ptr %num_participants_, align 8
  %arrayidx = getelementptr inbounds [16 x ptr], ptr %participants_, i64 0, i64 %4
  store ptr %call, ptr %arrayidx, align 8
  ret void
}

; Function Attrs: mustprogress nounwind uwtable
define linkonce_odr void @_ZNSt17basic_string_viewIcSt11char_traitsIcEEC2EPKc(ptr noundef nonnull align 8 dereferenceable(16) %this, ptr noundef nonnull %__str) unnamed_addr #5 comdat align 2 personality ptr @__gxx_personality_v0 {
entry:
  %this.addr = alloca ptr, align 8
  %__str.addr = alloca ptr, align 8
  store ptr %this, ptr %this.addr, align 8
  store ptr %__str, ptr %__str.addr, align 8
  %this1 = load ptr, ptr %this.addr, align 8
  %_M_len = getelementptr inbounds %"class.std::basic_string_view", ptr %this1, i32 0, i32 0
  %0 = load ptr, ptr %__str.addr, align 8
  %call = invoke noundef i64 @_ZNSt11char_traitsIcE6lengthEPKc(ptr noundef %0)
          to label %invoke.cont unwind label %terminate.lpad

invoke.cont:                                      ; preds = %entry
  store i64 %call, ptr %_M_len, align 8
  %_M_str = getelementptr inbounds %"class.std::basic_string_view", ptr %this1, i32 0, i32 1
  %1 = load ptr, ptr %__str.addr, align 8
  store ptr %1, ptr %_M_str, align 8
  ret void

terminate.lpad:                                   ; preds = %entry
  %2 = landingpad { ptr, i32 }
          catch ptr null
  %3 = extractvalue { ptr, i32 } %2, 0
  call void @__clang_call_terminate(ptr %3) #18
  unreachable
}

; Function Attrs: mustprogress uwtable
define void @_ZN9grpc_core22ClientPromiseBasedCall24StartRecvInitialMetadataEP19grpc_metadata_arrayRKNS_16PromiseBasedCall10CompletionERNS_5Party11BulkSpawnerE(ptr noundef nonnull align 8 dereferenceable(1264) %this, ptr noundef %array, ptr noundef nonnull align 1 dereferenceable(1) %completion, ptr noundef nonnull align 8 dereferenceable(144) %spawner) #4 align 2 personality ptr @__gxx_personality_v0 {
entry:
  %this.addr = alloca ptr, align 8
  %array.addr = alloca ptr, align 8
  %completion.addr = alloca ptr, align 8
  %spawner.addr = alloca ptr, align 8
  %agg.tmp = alloca %"class.std::basic_string_view", align 8
  %agg.tmp2 = alloca %class.anon.313, align 8
  %agg.tmp3 = alloca %class.anon.314, align 8
  %exn.slot = alloca ptr, align 8
  %ehselector.slot = alloca i32, align 4
  store ptr %this, ptr %this.addr, align 8
  store ptr %array, ptr %array.addr, align 8
  store ptr %completion, ptr %completion.addr, align 8
  store ptr %spawner, ptr %spawner.addr, align 8
  %this1 = load ptr, ptr %this.addr, align 8
  %0 = load ptr, ptr %spawner.addr, align 8
  call void @_ZNSt17basic_string_viewIcSt11char_traitsIcEEC2EPKc(ptr noundef nonnull align 8 dereferenceable(16) %agg.tmp, ptr noundef @.str.61) #3
  %1 = getelementptr inbounds %class.anon.313, ptr %agg.tmp2, i32 0, i32 0
  store ptr %this1, ptr %1, align 8
  %2 = getelementptr inbounds %class.anon.314, ptr %agg.tmp3, i32 0, i32 0
  store ptr %this1, ptr %2, align 8
  %3 = getelementptr inbounds %class.anon.314, ptr %agg.tmp3, i32 0, i32 1
  %4 = load ptr, ptr %array.addr, align 8
  store ptr %4, ptr %3, align 8
  %5 = getelementptr inbounds %class.anon.314, ptr %agg.tmp3, i32 0, i32 2
  %6 = load ptr, ptr %completion.addr, align 8
  call void @_ZN9grpc_core16PromiseBasedCall17AddOpToCompletionERKNS0_10CompletionENS0_9PendingOpE(ptr sret(%"class.grpc_core::PromiseBasedCall::Completion") align 1 %5, ptr noundef nonnull align 8 dereferenceable(1096) %this1, ptr noundef nonnull align 1 dereferenceable(1) %6, i32 noundef 2)
  %7 = getelementptr inbounds { i64, ptr }, ptr %agg.tmp, i32 0, i32 0
  %8 = load i64, ptr %7, align 8
  %9 = getelementptr inbounds { i64, ptr }, ptr %agg.tmp, i32 0, i32 1
  %10 = load ptr, ptr %9, align 8
  %coerce.dive = getelementptr inbounds %class.anon.313, ptr %agg.tmp2, i32 0, i32 0
  %11 = load ptr, ptr %coerce.dive, align 8
  invoke void @"_ZN9grpc_core5Party11BulkSpawner5SpawnIZNS_22ClientPromiseBasedCall24StartRecvInitialMetadataEP19grpc_metadata_arrayRKNS_16PromiseBasedCall10CompletionERS1_E3$_0ZNS3_24StartRecvInitialMetadataES5_S9_SA_E3$_1EEvSt17basic_string_viewIcSt11char_traitsIcEET_T0_"(ptr noundef nonnull align 8 dereferenceable(144) %0, i64 %8, ptr %10, ptr %11, ptr noundef %agg.tmp3)
          to label %invoke.cont unwind label %lpad

invoke.cont:                                      ; preds = %entry
  call void @"_ZZN9grpc_core22ClientPromiseBasedCall24StartRecvInitialMetadataEP19grpc_metadata_arrayRKNS_16PromiseBasedCall10CompletionERNS_5Party11BulkSpawnerEEN3$_1D2Ev"(ptr noundef nonnull align 8 dereferenceable(17) %agg.tmp3) #3
  ret void

lpad:                                             ; preds = %entry
  %12 = landingpad { ptr, i32 }
          cleanup
  %13 = extractvalue { ptr, i32 } %12, 0
  store ptr %13, ptr %exn.slot, align 8
  %14 = extractvalue { ptr, i32 } %12, 1
  store i32 %14, ptr %ehselector.slot, align 4
  call void @"_ZZN9grpc_core22ClientPromiseBasedCall24StartRecvInitialMetadataEP19grpc_metadata_arrayRKNS_16PromiseBasedCall10CompletionERNS_5Party11BulkSpawnerEEN3$_1D2Ev"(ptr noundef nonnull align 8 dereferenceable(17) %agg.tmp3) #3
  br label %eh.resume

eh.resume:                                        ; preds = %lpad
  %exn = load ptr, ptr %exn.slot, align 8
  %sel = load i32, ptr %ehselector.slot, align 4
  %lpad.val = insertvalue { ptr, i32 } poison, ptr %exn, 0
  %lpad.val4 = insertvalue { ptr, i32 } %lpad.val, i32 %sel, 1
  resume { ptr, i32 } %lpad.val4
}