; Function Attrs: mustprogress uwtable
define void @_ZN9grpc_core22ClientPromiseBasedCall24StartRecvInitialMetadataEP19grpc_metadata_arrayRKNS_16PromiseBasedCall10CompletionERNS_5Party11BulkSpawnerE(ptr noundef nonnull align 8 dereferenceable(1264) %this, ptr noundef %array, ptr noundef nonnull align 1 dereferenceable(1) %completion, ptr nocapture noundef nonnull align 8 dereferenceable(144) %spawner) local_unnamed_addr #3 align 2 personality ptr @__gxx_personality_v0 {
entry:
  %agg.tmp3 = alloca %class.anon.314, align 8
  store ptr %this, ptr %agg.tmp3, align 8
  %0 = getelementptr inbounds i8, ptr %agg.tmp3, i64 8
  store ptr %array, ptr %0, align 8
  %1 = getelementptr inbounds i8, ptr %agg.tmp3, i64 16
  call void @_ZN9grpc_core16PromiseBasedCall17AddOpToCompletionERKNS0_10CompletionENS0_9PendingOpE(ptr nonnull sret(%"class.grpc_core::PromiseBasedCall::Completion") align 1 %1, ptr noundef nonnull align 8 dereferenceable(1096) %this, ptr noundef nonnull align 1 dereferenceable(1) %completion, i32 noundef 2)
  %call.i.i23 = invoke noalias noundef nonnull dereferenceable(128) ptr @_Znwm(i64 noundef 128) #32
          to label %"_ZZN9grpc_core22ClientPromiseBasedCall24StartRecvInitialMetadataEP19grpc_metadata_arrayRKNS_16PromiseBasedCall10CompletionERNS_5Party11BulkSpawnerEEN3$_1D2Ev.exit" unwind label %lpad

"_ZZN9grpc_core22ClientPromiseBasedCall24StartRecvInitialMetadataEP19grpc_metadata_arrayRKNS_16PromiseBasedCall10CompletionERNS_5Party11BulkSpawnerEEN3$_1D2Ev.exit": ; preds = %entry
  %on_complete_.i.i.i = getelementptr inbounds i8, ptr %call.i.i23, i64 104
  call void @llvm.memcpy.p0.p0.i64(ptr noundef nonnull align 8 dereferenceable(16) %on_complete_.i.i.i, ptr noundef nonnull align 8 dereferenceable(16) %agg.tmp3, i64 16, i1 false)
  %2 = load i8, ptr %1, align 8
  %handle_.i.i.i.i = getelementptr inbounds i8, ptr %call.i.i23, i64 8
  store ptr null, ptr %handle_.i.i.i.i, align 8
  %name_.i.i.i.i = getelementptr inbounds i8, ptr %call.i.i23, i64 16
  store i64 21, ptr %name_.i.i.i.i, align 8
  %name.sroa.2.0.name_.sroa_idx.i.i.i.i = getelementptr inbounds i8, ptr %call.i.i23, i64 24
  store ptr @.str.61, ptr %name.sroa.2.0.name_.sroa_idx.i.i.i.i, align 8
  store ptr getelementptr inbounds ({ [4 x ptr] }, ptr @"_ZTVN9grpc_core5Party15ParticipantImplIZNS_22ClientPromiseBasedCall24StartRecvInitialMetadataEP19grpc_metadata_arrayRKNS_16PromiseBasedCall10CompletionERNS0_11BulkSpawnerEE3$_0ZNS2_24StartRecvInitialMetadataES4_S8_SA_E3$_1EE", i64 0, i32 0, i64 2), ptr %call.i.i23, align 8
  %3 = getelementptr inbounds i8, ptr %call.i.i23, i64 120
  store i8 %2, ptr %3, align 1
  %started_.i.i.i = getelementptr inbounds i8, ptr %call.i.i23, i64 121
  store i8 0, ptr %started_.i.i.i, align 1
  %4 = getelementptr inbounds i8, ptr %call.i.i23, i64 32
  store ptr %this, ptr %4, align 8
  %participants_.i = getelementptr inbounds i8, ptr %spawner, i64 16
  %num_participants_.i = getelementptr inbounds i8, ptr %spawner, i64 8
  %5 = load i64, ptr %num_participants_.i, align 8
  %inc.i = add i64 %5, 1
  store i64 %inc.i, ptr %num_participants_.i, align 8
  %arrayidx.i = getelementptr inbounds [16 x ptr], ptr %participants_.i, i64 0, i64 %5
  store ptr %call.i.i23, ptr %arrayidx.i, align 8
  ret void

lpad:                                             ; preds = %entry
  %6 = landingpad { ptr, i32 }
          cleanup
  %agg.tmp3.val1 = load i8, ptr %1, align 8
  tail call fastcc void @"_ZZN9grpc_core22ClientPromiseBasedCall24StartRecvInitialMetadataEP19grpc_metadata_arrayRKNS_16PromiseBasedCall10CompletionERNS_5Party11BulkSpawnerEEN3$_1D2Ev"(i8 %agg.tmp3.val1) #28
  resume { ptr, i32 } %6
}